target datalayout = "e-m:e-p270:32:32-p271:32:32-p272:64:64-i64:64-i128:128-f80:128-n8:16:32:64-S128"
target triple = "x86_64-pc-linux-gnu"

%struct.redisAeEvents = type { ptr, ptr, i32, i32, i32 }

; Function Attrs: nounwind uwtable
define internal void @redisAeAddWrite(ptr noundef %0) #0 {
  %2 = alloca ptr, align 8
  %3 = alloca ptr, align 8
  %4 = alloca ptr, align 8
  store ptr %0, ptr %2, align 8, !tbaa !10
  call void @llvm.lifetime.start.p0(i64 8, ptr %3) #16
  %5 = load ptr, ptr %2, align 8, !tbaa !10
  store ptr %5, ptr %3, align 8, !tbaa !248
  call void @llvm.lifetime.start.p0(i64 8, ptr %4) #16
  %6 = load ptr, ptr %3, align 8, !tbaa !248
  %7 = getelementptr inbounds nuw %struct.redisAeEvents, ptr %6, i32 0, i32 1
  %8 = load ptr, ptr %7, align 8, !tbaa !252
  store ptr %8, ptr %4, align 8, !tbaa !244
  %9 = load ptr, ptr %3, align 8, !tbaa !248
  %10 = getelementptr inbounds nuw %struct.redisAeEvents, ptr %9, i32 0, i32 4
  %11 = load i32, ptr %10, align 8, !tbaa !255
  %12 = icmp ne i32 %11, 0
  br i1 %12, label %22, label %13

13:                                               ; preds = %1
  %14 = load ptr, ptr %3, align 8, !tbaa !248
  %15 = getelementptr inbounds nuw %struct.redisAeEvents, ptr %14, i32 0, i32 4
  store i32 1, ptr %15, align 8, !tbaa !255
  %16 = load ptr, ptr %4, align 8, !tbaa !244
  %17 = load ptr, ptr %3, align 8, !tbaa !248
  %18 = getelementptr inbounds nuw %struct.redisAeEvents, ptr %17, i32 0, i32 2
  %19 = load i32, ptr %18, align 8, !tbaa !254
  %20 = load ptr, ptr %3, align 8, !tbaa !248
  %21 = call i32 @aeCreateFileEvent(ptr noundef %16, i32 noundef %19, i32 noundef 2, ptr noundef @redisAeWriteEvent, ptr noundef %20)
  br label %22

22:                                               ; preds = %13, %1
  call void @llvm.lifetime.end.p0(i64 8, ptr %4) #16
  call void @llvm.lifetime.end.p0(i64 8, ptr %3) #16
  ret void
}