; Function Attrs: nounwind uwtable
define internal void @redisAeAddWrite(ptr noundef %0) #0 {
  %2 = getelementptr inbounds nuw i8, ptr %0, i64 24
  %3 = load i32, ptr %2, align 8, !tbaa !220
  %.not = icmp eq i32 %3, 0
  br i1 %.not, label %4, label %10

4:                                                ; preds = %1
  %5 = getelementptr inbounds nuw i8, ptr %0, i64 8
  %6 = load ptr, ptr %5, align 8, !tbaa !217
  store i32 1, ptr %2, align 8, !tbaa !220
  %7 = getelementptr inbounds nuw i8, ptr %0, i64 16
  %8 = load i32, ptr %7, align 8, !tbaa !219
  %9 = tail call i32 @aeCreateFileEvent(ptr noundef %6, i32 noundef %8, i32 noundef 2, ptr noundef nonnull @redisAeWriteEvent, ptr noundef nonnull %0) #30
  br label %10

10:                                               ; preds = %4, %1
  ret void
}